target datalayout = "e-m:e-p270:32:32-p271:32:32-p272:64:64-i64:64-i128:128-f80:128-n8:16:32:64-S128"
target triple = "x86_64-pc-linux-gnu"

@stderr = external global ptr, align 8
@.str = private unnamed_addr constant [12 x i8] c"%s (%s:%d)\0A\00", align 1
@.str.1 = private unnamed_addr constant [103 x i8] c"generated/home/dtcxzyw/WorkSpace/Projects/compilers/llvm-opt-benchmark/bench/libzmq/libzmq/src/tcp.cpp\00", align 1

; Function Attrs: mustprogress uwtable
define noundef i32 @_ZN3zmq8tcp_readEiPvm(i32 noundef %0, ptr noundef %1, i64 noundef %2) #0 {
  %4 = alloca i32, align 4
  %5 = alloca ptr, align 8
  %6 = alloca i64, align 8
  %7 = alloca i64, align 8
  %8 = alloca ptr, align 8
  store i32 %0, ptr %4, align 4, !tbaa !3
  store ptr %1, ptr %5, align 8, !tbaa !7
  store i64 %2, ptr %6, align 8, !tbaa !9
  call void @llvm.lifetime.start.p0(i64 8, ptr %7) #7
  %9 = load i32, ptr %4, align 4, !tbaa !3
  %10 = load ptr, ptr %5, align 8, !tbaa !7
  %11 = load i64, ptr %6, align 8, !tbaa !9
  %12 = call i64 @recv(i32 noundef %9, ptr noundef %10, i64 noundef %11, i32 noundef 0)
  store i64 %12, ptr %7, align 8, !tbaa !9
  %13 = load i64, ptr %7, align 8, !tbaa !9
  %14 = icmp eq i64 %13, -1
  br i1 %14, label %15, label %61

15:                                               ; preds = %3
  br label %16

16:                                               ; preds = %15
  %17 = call ptr @__errno_location() #8
  %18 = load i32, ptr %17, align 4, !tbaa !3
  %19 = icmp ne i32 %18, 9
  br i1 %19, label %20, label %32

20:                                               ; preds = %16
  %21 = call ptr @__errno_location() #8
  %22 = load i32, ptr %21, align 4, !tbaa !3
  %23 = icmp ne i32 %22, 14
  br i1 %23, label %24, label %32

24:                                               ; preds = %20
  %25 = call ptr @__errno_location() #8
  %26 = load i32, ptr %25, align 4, !tbaa !3
  %27 = icmp ne i32 %26, 12
  br i1 %27, label %28, label %32

28:                                               ; preds = %24
  %29 = call ptr @__errno_location() #8
  %30 = load i32, ptr %29, align 4, !tbaa !3
  %31 = icmp ne i32 %30, 88
  br label %32

32:                                               ; preds = %28, %24, %20, %16
  %33 = phi i1 [ false, %24 ], [ false, %20 ], [ false, %16 ], [ %31, %28 ]
  %34 = xor i1 %33, true
  %35 = zext i1 %34 to i64
  %36 = call i64 @llvm.expect.i64(i64 %35, i64 0)
  %37 = icmp ne i64 %36, 0
  br i1 %37, label %38, label %48

38:                                               ; preds = %32
  call void @llvm.lifetime.start.p0(i64 8, ptr %8) #7
  %39 = call ptr @__errno_location() #8
  %40 = load i32, ptr %39, align 4, !tbaa !3
  %41 = call ptr @strerror(i32 noundef %40) #7
  store ptr %41, ptr %8, align 8, !tbaa !11
  %42 = load ptr, ptr @stderr, align 8, !tbaa !13
  %43 = load ptr, ptr %8, align 8, !tbaa !11
  %44 = call i32 (ptr, ptr, ...) @fprintf(ptr noundef %42, ptr noundef @.str, ptr noundef %43, ptr noundef @.str.1, i32 noundef 280) #7
  %45 = load ptr, ptr @stderr, align 8, !tbaa !13
  %46 = call i32 @fflush(ptr noundef %45)
  %47 = load ptr, ptr %8, align 8, !tbaa !11
  call void @_ZN3zmq9zmq_abortEPKc(ptr noundef %47)
  call void @llvm.lifetime.end.p0(i64 8, ptr %8) #7
  br label %48

48:                                               ; preds = %38, %32
  br label %49

49:                                               ; preds = %48
  br label %50

50:                                               ; preds = %49
  %51 = call ptr @__errno_location() #8
  %52 = load i32, ptr %51, align 4, !tbaa !3
  %53 = icmp eq i32 %52, 11
  br i1 %53, label %58, label %54

54:                                               ; preds = %50
  %55 = call ptr @__errno_location() #8
  %56 = load i32, ptr %55, align 4, !tbaa !3
  %57 = icmp eq i32 %56, 4
  br i1 %57, label %58, label %60

58:                                               ; preds = %54, %50
  %59 = call ptr @__errno_location() #8
  store i32 11, ptr %59, align 4, !tbaa !3
  br label %60

60:                                               ; preds = %58, %54
  br label %61

61:                                               ; preds = %60, %3
  %62 = load i64, ptr %7, align 8, !tbaa !9
  %63 = trunc i64 %62 to i32
  call void @llvm.lifetime.end.p0(i64 8, ptr %7) #7
  ret i32 %63
}