; Function Attrs: mustprogress uwtable
define noundef i32 @_ZN3zmq8tcp_readEiPvm(i32 noundef %0, ptr noundef %1, i64 noundef %2) local_unnamed_addr #0 {
  %4 = tail call i64 @recv(i32 noundef %0, ptr noundef %1, i64 noundef %2, i32 noundef 0)
  %5 = icmp eq i64 %4, -1
  br i1 %5, label %6, label %17

6:                                                ; preds = %3
  %7 = tail call ptr @__errno_location() #8
  %8 = load i32, ptr %7, align 4, !tbaa !3
  switch i32 %8, label %14 [
    i32 9, label %.critedge
    i32 14, label %.critedge
    i32 12, label %.critedge
    i32 88, label %.critedge
  ], !prof !11

.critedge:                                        ; preds = %6, %6, %6, %6
  %9 = tail call ptr @strerror(i32 noundef %8) #7
  %10 = load ptr, ptr @stderr, align 8, !tbaa !8
  %11 = tail call i32 (ptr, ptr, ...) @fprintf(ptr noundef %10, ptr noundef nonnull @.str, ptr noundef %9, ptr noundef nonnull @.str.1, i32 noundef 280) #9
  %12 = load ptr, ptr @stderr, align 8, !tbaa !8
  %13 = tail call i32 @fflush(ptr noundef %12)
  tail call void @_ZN3zmq9zmq_abortEPKc(ptr noundef %9)
  %.pr = load i32, ptr %7, align 4, !tbaa !3
  br label %14

14:                                               ; preds = %6, %.critedge
  %15 = phi i32 [ %8, %6 ], [ %.pr, %.critedge ]
  switch i32 %15, label %17 [
    i32 11, label %16
    i32 4, label %16
  ]

16:                                               ; preds = %14, %14
  store i32 11, ptr %7, align 4, !tbaa !3
  br label %17

17:                                               ; preds = %14, %16, %3
  %18 = trunc i64 %4 to i32
  ret i32 %18
}